; Function Attrs: mustprogress nofree norecurse nosync nounwind willreturn memory(read, inaccessiblemem: none) uwtable
define hidden noundef float @_ZN6Assimp22ComputePositionEpsilonEPK6aiMesh(ptr noundef readonly captures(none) %0) local_unnamed_addr #6 {
  %2 = getelementptr inbounds nuw i8, ptr %0, i64 16
  %3 = load ptr, ptr %2, align 8
  %4 = getelementptr inbounds nuw i8, ptr %0, i64 4
  %5 = load i32, ptr %4, align 4
  %.not.i = icmp eq i32 %5, 0
  br i1 %.not.i, label %_ZN6Assimp11ArrayBoundsI10aiVector3tIfEEEvPKT_jRS3_S6_.exit, label %.lr.ph.preheader.i

.lr.ph.preheader.i:                               ; preds = %1
  %wide.trip.count.i = zext i32 %5 to i64
  br label %.lr.ph.i

.lr.ph.i:                                         ; preds = %.lr.ph.i, %.lr.ph.preheader.i
  %.sroa.11.0 = phi float [ -1.000000e+10, %.lr.ph.preheader.i ], [ %23, %.lr.ph.i ]
  %.sroa.02.0 = phi <2 x float> [ splat (float -1.000000e+10), %.lr.ph.preheader.i ], [ %.sroa.0.4.vec.insert.i20.i, %.lr.ph.i ]
  %.sroa.014.0 = phi <2 x float> [ splat (float 1.000000e+10), %.lr.ph.preheader.i ], [ %.sroa.0.4.vec.insert.i.i, %.lr.ph.i ]
  %.sroa.1125.0 = phi float [ 1.000000e+10, %.lr.ph.preheader.i ], [ %17, %.lr.ph.i ]
  %indvars.iv.i = phi i64 [ 0, %.lr.ph.preheader.i ], [ %indvars.iv.next.i, %.lr.ph.i ]
  %6 = getelementptr inbounds nuw %class.aiVector3t, ptr %3, i64 %indvars.iv.i
  %.sroa.014.0.vec.extract = extractelement <2 x float> %.sroa.014.0, i64 0
  %7 = load float, ptr %6, align 4
  %8 = fcmp olt float %.sroa.014.0.vec.extract, %7
  %9 = select i1 %8, float %.sroa.014.0.vec.extract, float %7
  %10 = getelementptr inbounds nuw i8, ptr %6, i64 4
  %.sroa.014.4.vec.extract = extractelement <2 x float> %.sroa.014.0, i64 1
  %11 = load float, ptr %10, align 4
  %12 = fcmp olt float %.sroa.014.4.vec.extract, %11
  %13 = select i1 %12, float %.sroa.014.4.vec.extract, float %11
  %14 = getelementptr inbounds nuw i8, ptr %6, i64 8
  %15 = load float, ptr %14, align 4
  %16 = fcmp olt float %.sroa.1125.0, %15
  %17 = select i1 %16, float %.sroa.1125.0, float %15
  %.sroa.0.0.vec.insert.i.i = insertelement <2 x float> poison, float %9, i64 0
  %.sroa.0.4.vec.insert.i.i = insertelement <2 x float> %.sroa.0.0.vec.insert.i.i, float %13, i64 1
  %.sroa.02.0.vec.extract = extractelement <2 x float> %.sroa.02.0, i64 0
  %18 = fcmp olt float %7, %.sroa.02.0.vec.extract
  %19 = select i1 %18, float %.sroa.02.0.vec.extract, float %7
  %.sroa.02.4.vec.extract = extractelement <2 x float> %.sroa.02.0, i64 1
  %20 = fcmp olt float %11, %.sroa.02.4.vec.extract
  %21 = select i1 %20, float %.sroa.02.4.vec.extract, float %11
  %22 = fcmp olt float %15, %.sroa.11.0
  %23 = select i1 %22, float %.sroa.11.0, float %15
  %.sroa.0.0.vec.insert.i19.i = insertelement <2 x float> poison, float %19, i64 0
  %.sroa.0.4.vec.insert.i20.i = insertelement <2 x float> %.sroa.0.0.vec.insert.i19.i, float %21, i64 1
  %indvars.iv.next.i = add nuw nsw i64 %indvars.iv.i, 1
  %exitcond.not.i = icmp eq i64 %indvars.iv.next.i, %wide.trip.count.i
  br i1 %exitcond.not.i, label %_ZN6Assimp11ArrayBoundsI10aiVector3tIfEEEvPKT_jRS3_S6_.exit.loopexit, label %.lr.ph.i, !llvm.loop !12

_ZN6Assimp11ArrayBoundsI10aiVector3tIfEEEvPKT_jRS3_S6_.exit.loopexit: ; preds = %.lr.ph.i
  %24 = fsub float %23, %17
  br label %_ZN6Assimp11ArrayBoundsI10aiVector3tIfEEEvPKT_jRS3_S6_.exit

_ZN6Assimp11ArrayBoundsI10aiVector3tIfEEEvPKT_jRS3_S6_.exit: ; preds = %_ZN6Assimp11ArrayBoundsI10aiVector3tIfEEEvPKT_jRS3_S6_.exit.loopexit, %1
  %.sroa.02.1 = phi <2 x float> [ splat (float -1.000000e+10), %1 ], [ %.sroa.0.4.vec.insert.i20.i, %_ZN6Assimp11ArrayBoundsI10aiVector3tIfEEEvPKT_jRS3_S6_.exit.loopexit ]
  %.sroa.014.1 = phi <2 x float> [ splat (float 1.000000e+10), %1 ], [ %.sroa.0.4.vec.insert.i.i, %_ZN6Assimp11ArrayBoundsI10aiVector3tIfEEEvPKT_jRS3_S6_.exit.loopexit ]
  %25 = phi float [ -2.000000e+10, %1 ], [ %24, %_ZN6Assimp11ArrayBoundsI10aiVector3tIfEEEvPKT_jRS3_S6_.exit.loopexit ]
  %26 = fsub <2 x float> %.sroa.02.1, %.sroa.014.1
  %27 = extractelement <2 x float> %26, i64 0
  %28 = fsub <2 x float> %.sroa.02.1, %.sroa.014.1
  %29 = fmul <2 x float> %28, %28
  %30 = extractelement <2 x float> %29, i64 1
  %31 = tail call float @llvm.fmuladd.f32(float %27, float %27, float %30)
  %32 = tail call noundef float @llvm.fmuladd.f32(float %25, float %25, float %31)
  %sqrt.i = tail call noundef float @llvm.sqrt.f32(float %32)
  %33 = fmul float %sqrt.i, 0x3F1A36E2E0000000
  ret float %33
}